target datalayout = "e-m:e-p270:32:32-p271:32:32-p272:64:64-i64:64-i128:128-f80:128-n8:16:32:64-S128"
target triple = "x86_64-pc-linux-gnu"

%"class.std::__cxx11::basic_string" = type { %"struct.std::__cxx11::basic_string<char>::_Alloc_hider", i64, %union.anon }
%"struct.std::__cxx11::basic_string<char>::_Alloc_hider" = type { ptr }
%union.anon = type { i64, [8 x i8] }
%"class.std::shared_ptr" = type { %"class.std::__shared_ptr" }
%"class.std::__shared_ptr" = type { ptr, %"class.std::__shared_count" }
%"class.std::__shared_count" = type { ptr }
%"class.open_spiel::dou_dizhu::DouDizhuState" = type <{ %"class.open_spiel::State.base", [4 x i8], %"class.std::vector.6", i32, i32, i32, i32, i32, i32, i8, [3 x i8], i32, i32, i32, i32, i32, %"struct.std::array", %"struct.std::array.11", [4 x i8], %"class.std::vector.12", i32, %"struct.std::array.17", %"class.std::vector.18", %"struct.std::array.23", [4 x i8] }>
%"class.open_spiel::State.base" = type <{ ptr, %"class.std::shared_ptr", i32, i32, %"class.std::vector", i32 }>
%"class.std::vector" = type { %"struct.std::_Vector_base" }
%"struct.std::_Vector_base" = type { %"struct.std::_Vector_base<open_spiel::State::PlayerAction, std::allocator<open_spiel::State::PlayerAction>>::_Vector_impl" }
%"struct.std::_Vector_base<open_spiel::State::PlayerAction, std::allocator<open_spiel::State::PlayerAction>>::_Vector_impl" = type { %"struct.std::_Vector_base<open_spiel::State::PlayerAction, std::allocator<open_spiel::State::PlayerAction>>::_Vector_impl_data" }
%"struct.std::_Vector_base<open_spiel::State::PlayerAction, std::allocator<open_spiel::State::PlayerAction>>::_Vector_impl_data" = type { ptr, ptr, ptr }
%"class.std::vector.6" = type { %"struct.std::_Vector_base.7" }
%"struct.std::_Vector_base.7" = type { %"struct.std::_Vector_base<int, std::allocator<int>>::_Vector_impl" }
%"struct.std::_Vector_base<int, std::allocator<int>>::_Vector_impl" = type { %"struct.std::_Vector_base<int, std::allocator<int>>::_Vector_impl_data" }
%"struct.std::_Vector_base<int, std::allocator<int>>::_Vector_impl_data" = type { ptr, ptr, ptr }
%"struct.std::array" = type { [54 x i32] }
%"struct.std::array.11" = type { [15 x i32] }
%"class.std::vector.12" = type { %"struct.std::_Vector_base.13" }
%"struct.std::_Vector_base.13" = type { %"struct.std::_Vector_base<open_spiel::dou_dizhu::Trick, std::allocator<open_spiel::dou_dizhu::Trick>>::_Vector_impl" }
%"struct.std::_Vector_base<open_spiel::dou_dizhu::Trick, std::allocator<open_spiel::dou_dizhu::Trick>>::_Vector_impl" = type { %"struct.std::_Vector_base<open_spiel::dou_dizhu::Trick, std::allocator<open_spiel::dou_dizhu::Trick>>::_Vector_impl_data" }
%"struct.std::_Vector_base<open_spiel::dou_dizhu::Trick, std::allocator<open_spiel::dou_dizhu::Trick>>::_Vector_impl_data" = type { ptr, ptr, ptr }
%"struct.std::array.17" = type { [3 x i32] }
%"class.std::vector.18" = type { %"struct.std::_Vector_base.19" }
%"struct.std::_Vector_base.19" = type { %"struct.std::_Vector_base<double, std::allocator<double>>::_Vector_impl" }
%"struct.std::_Vector_base<double, std::allocator<double>>::_Vector_impl" = type { %"struct.std::_Vector_base<double, std::allocator<double>>::_Vector_impl_data" }
%"struct.std::_Vector_base<double, std::allocator<double>>::_Vector_impl_data" = type { ptr, ptr, ptr }
%"struct.std::array.23" = type { [3 x %"struct.std::array.11"] }

@.str.11 = private unnamed_addr constant [138 x i8] c"generated/home/dtcxzyw/WorkSpace/Projects/compilers/llvm-opt-benchmark/bench/openspiel/open_spiel/open_spiel/games/dou_dizhu/dou_dizhu.cc\00", align 1
@.str.12 = private unnamed_addr constant [2 x i8] c":\00", align 1
@.str.13 = private unnamed_addr constant [2 x i8] c" \00", align 1
@.str.16 = private unnamed_addr constant [4 x i8] c" = \00", align 1
@.str.49 = private unnamed_addr constant [40 x i8] c"holds_[player][rank] >= used_hand[rank]\00", align 1
@.str.50 = private unnamed_addr constant [22 x i8] c"\0Aholds_[player][rank]\00", align 1
@.str.51 = private unnamed_addr constant [21 x i8] c", used_hand[rank] = \00", align 1

; Function Attrs: mustprogress nounwind uwtable
define linkonce_odr noundef nonnull align 4 dereferenceable(4) ptr @_ZNSt14__array_traitsIiLm15EE6_S_refERA15_Kim(ptr noundef nonnull align 4 dereferenceable(60) %0, i64 noundef %1) #6 comdat align 2 {
  %3 = alloca ptr, align 8
  %4 = alloca i64, align 8
  store ptr %0, ptr %3, align 8
  store i64 %1, ptr %4, align 8
  %5 = load ptr, ptr %3, align 8
  %6 = load i64, ptr %4, align 8
  %7 = getelementptr inbounds [15 x i32], ptr %5, i64 0, i64 %6
  ret ptr %7
}

; Function Attrs: mustprogress nounwind uwtable
define linkonce_odr noundef nonnull align 4 dereferenceable(60) ptr @_ZNSt14__array_traitsISt5arrayIiLm15EELm3EE6_S_refERA3_KS1_m(ptr noundef nonnull align 4 dereferenceable(180) %0, i64 noundef %1) #6 comdat align 2 {
  %3 = alloca ptr, align 8
  %4 = alloca i64, align 8
  store ptr %0, ptr %3, align 8
  store i64 %1, ptr %4, align 8
  %5 = load ptr, ptr %3, align 8
  %6 = load i64, ptr %4, align 8
  %7 = getelementptr inbounds [3 x %"struct.std::array.11"], ptr %5, i64 0, i64 %6
  ret ptr %7
}

; Function Attrs: mustprogress nounwind uwtable
define linkonce_odr noundef nonnull align 4 dereferenceable(4) ptr @_ZNSt5arrayIiLm15EEixEm(ptr noundef nonnull align 4 dereferenceable(60) %0, i64 noundef %1) #6 comdat align 2 {
  %3 = alloca ptr, align 8
  %4 = alloca i64, align 8
  store ptr %0, ptr %3, align 8
  store i64 %1, ptr %4, align 8
  %5 = load ptr, ptr %3, align 8
  %6 = getelementptr inbounds nuw %"struct.std::array.11", ptr %5, i32 0, i32 0
  %7 = load i64, ptr %4, align 8
  %8 = call noundef nonnull align 4 dereferenceable(4) ptr @_ZNSt14__array_traitsIiLm15EE6_S_refERA15_Kim(ptr noundef nonnull align 4 dereferenceable(60) %6, i64 noundef %7) #3
  ret ptr %8
}

; Function Attrs: mustprogress nounwind uwtable
define linkonce_odr noundef nonnull align 4 dereferenceable(60) ptr @_ZNSt5arrayIS_IiLm15EELm3EEixEm(ptr noundef nonnull align 4 dereferenceable(180) %0, i64 noundef %1) #6 comdat align 2 {
  %3 = alloca ptr, align 8
  %4 = alloca i64, align 8
  store ptr %0, ptr %3, align 8
  store i64 %1, ptr %4, align 8
  %5 = load ptr, ptr %3, align 8
  %6 = getelementptr inbounds nuw %"struct.std::array.23", ptr %5, i32 0, i32 0
  %7 = load i64, ptr %4, align 8
  %8 = call noundef nonnull align 4 dereferenceable(60) ptr @_ZNSt14__array_traitsISt5arrayIiLm15EELm3EE6_S_refERA3_KS1_m(ptr noundef nonnull align 4 dereferenceable(180) %6, i64 noundef %7) #3
  ret ptr %8
}

; Function Attrs: mustprogress uwtable
define noundef zeroext i1 @_ZN10open_spiel9dou_dizhu13DouDizhuState13AfterPlayHandEii(ptr noundef nonnull align 8 dereferenceable(660) %0, i32 noundef %1, i32 noundef %2) #4 align 2 personality ptr @__gxx_personality_v0 {
  %4 = alloca ptr, align 8
  %5 = alloca i32, align 4
  %6 = alloca i32, align 4
  %7 = alloca %"struct.std::array.11", align 4
  %8 = alloca i8, align 1
  %9 = alloca i32, align 4
  %10 = alloca i32, align 4
  %11 = alloca i32, align 4
  %12 = alloca %"class.std::__cxx11::basic_string", align 8
  %13 = alloca i32, align 4
  %14 = alloca ptr, align 8
  %15 = alloca i32, align 4
  store ptr %0, ptr %4, align 8
  store i32 %1, ptr %5, align 4
  store i32 %2, ptr %6, align 4
  %16 = load ptr, ptr %4, align 8
  %17 = load i32, ptr %6, align 4
  call void @_ZN10open_spiel9dou_dizhu12ActionToHandEi(ptr dead_on_unwind writable sret(%"struct.std::array.11") align 4 %7, i32 noundef %17)
  store i8 1, ptr %8, align 1
  store i32 0, ptr %9, align 4
  br label %18

18:                                               ; preds = %86, %3
  %19 = load i32, ptr %9, align 4
  %20 = icmp slt i32 %19, 15
  br i1 %20, label %21, label %89

21:                                               ; preds = %18
  br label %22

22:                                               ; preds = %21
  %23 = getelementptr inbounds nuw %"class.open_spiel::dou_dizhu::DouDizhuState", ptr %16, i32 0, i32 23
  %24 = load i32, ptr %5, align 4
  %25 = sext i32 %24 to i64
  %26 = call noundef nonnull align 4 dereferenceable(60) ptr @_ZNSt5arrayIS_IiLm15EELm3EEixEm(ptr noundef nonnull align 4 dereferenceable(180) %23, i64 noundef %25) #3
  %27 = load i32, ptr %9, align 4
  %28 = sext i32 %27 to i64
  %29 = call noundef nonnull align 4 dereferenceable(4) ptr @_ZNSt5arrayIiLm15EEixEm(ptr noundef nonnull align 4 dereferenceable(60) %26, i64 noundef %28) #3
  %30 = load i32, ptr %29, align 4
  store i32 %30, ptr %10, align 4
  %31 = load i32, ptr %9, align 4
  %32 = sext i32 %31 to i64
  %33 = call noundef nonnull align 4 dereferenceable(4) ptr @_ZNSt5arrayIiLm15EEixEm(ptr noundef nonnull align 4 dereferenceable(60) %7, i64 noundef %32) #3
  %34 = load i32, ptr %33, align 4
  store i32 %34, ptr %11, align 4
  %35 = load i32, ptr %10, align 4
  %36 = load i32, ptr %11, align 4
  %37 = icmp sge i32 %35, %36
  br i1 %37, label %44, label %38

38:                                               ; preds = %22
  store i32 392, ptr %13, align 4
  call void @_ZN10open_spiel8internal11SpielStrCatIJRA138_KcRA2_S2_iS6_RA40_S2_RA22_S2_RA4_S2_RiRA21_S2_SD_EEENSt7__cxx1112basic_stringIcSt11char_traitsIcESaIcEEEDpOT_(ptr dead_on_unwind writable sret(%"class.std::__cxx11::basic_string") align 8 %12, ptr noundef nonnull align 1 dereferenceable(138) @.str.11, ptr noundef nonnull align 1 dereferenceable(2) @.str.12, ptr noundef nonnull align 4 dereferenceable(4) %13, ptr noundef nonnull align 1 dereferenceable(2) @.str.13, ptr noundef nonnull align 1 dereferenceable(40) @.str.49, ptr noundef nonnull align 1 dereferenceable(22) @.str.50, ptr noundef nonnull align 1 dereferenceable(4) @.str.16, ptr noundef nonnull align 4 dereferenceable(4) %10, ptr noundef nonnull align 1 dereferenceable(21) @.str.51, ptr noundef nonnull align 4 dereferenceable(4) %11)
  invoke void @_ZN10open_spiel15SpielFatalErrorERKNSt7__cxx1112basic_stringIcSt11char_traitsIcESaIcEEE(ptr noundef nonnull align 8 dereferenceable(32) %12) #16
          to label %39 unwind label %40

39:                                               ; preds = %38
  unreachable

40:                                               ; preds = %38
  %41 = landingpad { ptr, i32 }
          cleanup
  %42 = extractvalue { ptr, i32 } %41, 0
  store ptr %42, ptr %14, align 8
  %43 = extractvalue { ptr, i32 } %41, 1
  store i32 %43, ptr %15, align 4
  call void @_ZNSt7__cxx1112basic_stringIcSt11char_traitsIcESaIcEED1Ev(ptr noundef nonnull align 8 dereferenceable(32) %12) #3
  br label %92

44:                                               ; preds = %22
  br label %45

45:                                               ; preds = %44
  %46 = load i32, ptr %9, align 4
  %47 = sext i32 %46 to i64
  %48 = call noundef nonnull align 4 dereferenceable(4) ptr @_ZNSt5arrayIiLm15EEixEm(ptr noundef nonnull align 4 dereferenceable(60) %7, i64 noundef %47) #3
  %49 = load i32, ptr %48, align 4
  %50 = getelementptr inbounds nuw %"class.open_spiel::dou_dizhu::DouDizhuState", ptr %16, i32 0, i32 23
  %51 = load i32, ptr %5, align 4
  %52 = sext i32 %51 to i64
  %53 = call noundef nonnull align 4 dereferenceable(60) ptr @_ZNSt5arrayIS_IiLm15EELm3EEixEm(ptr noundef nonnull align 4 dereferenceable(180) %50, i64 noundef %52) #3
  %54 = load i32, ptr %9, align 4
  %55 = sext i32 %54 to i64
  %56 = call noundef nonnull align 4 dereferenceable(4) ptr @_ZNSt5arrayIiLm15EEixEm(ptr noundef nonnull align 4 dereferenceable(60) %53, i64 noundef %55) #3
  %57 = load i32, ptr %56, align 4
  %58 = sub nsw i32 %57, %49
  store i32 %58, ptr %56, align 4
  %59 = getelementptr inbounds nuw %"class.open_spiel::dou_dizhu::DouDizhuState", ptr %16, i32 0, i32 23
  %60 = load i32, ptr %5, align 4
  %61 = sext i32 %60 to i64
  %62 = call noundef nonnull align 4 dereferenceable(60) ptr @_ZNSt5arrayIS_IiLm15EELm3EEixEm(ptr noundef nonnull align 4 dereferenceable(180) %59, i64 noundef %61) #3
  %63 = load i32, ptr %9, align 4
  %64 = sext i32 %63 to i64
  %65 = call noundef nonnull align 4 dereferenceable(4) ptr @_ZNSt5arrayIiLm15EEixEm(ptr noundef nonnull align 4 dereferenceable(60) %62, i64 noundef %64) #3
  %66 = load i32, ptr %65, align 4
  %67 = icmp ne i32 %66, 0
  %68 = xor i1 %67, true
  %69 = zext i1 %68 to i32
  %70 = load i8, ptr %8, align 1
  %71 = trunc i8 %70 to i1
  %72 = zext i1 %71 to i32
  %73 = and i32 %72, %69
  %74 = icmp ne i32 %73, 0
  %75 = zext i1 %74 to i8
  store i8 %75, ptr %8, align 1
  %76 = load i32, ptr %9, align 4
  %77 = sext i32 %76 to i64
  %78 = call noundef nonnull align 4 dereferenceable(4) ptr @_ZNSt5arrayIiLm15EEixEm(ptr noundef nonnull align 4 dereferenceable(60) %7, i64 noundef %77) #3
  %79 = load i32, ptr %78, align 4
  %80 = getelementptr inbounds nuw %"class.open_spiel::dou_dizhu::DouDizhuState", ptr %16, i32 0, i32 17
  %81 = load i32, ptr %9, align 4
  %82 = sext i32 %81 to i64
  %83 = call noundef nonnull align 4 dereferenceable(4) ptr @_ZNSt5arrayIiLm15EEixEm(ptr noundef nonnull align 4 dereferenceable(60) %80, i64 noundef %82) #3
  %84 = load i32, ptr %83, align 4
  %85 = add nsw i32 %84, %79
  store i32 %85, ptr %83, align 4
  br label %86

86:                                               ; preds = %45
  %87 = load i32, ptr %9, align 4
  %88 = add nsw i32 %87, 1
  store i32 %88, ptr %9, align 4
  br label %18, !llvm.loop !26

89:                                               ; preds = %18
  %90 = load i8, ptr %8, align 1
  %91 = trunc i8 %90 to i1
  ret i1 %91

92:                                               ; preds = %40
  %93 = load ptr, ptr %14, align 8
  %94 = load i32, ptr %15, align 4
  %95 = insertvalue { ptr, i32 } poison, ptr %93, 0
  %96 = insertvalue { ptr, i32 } %95, i32 %94, 1
  resume { ptr, i32 } %96
}