; Function Attrs: mustprogress uwtable
define noundef zeroext i1 @_ZN10open_spiel9dou_dizhu13DouDizhuState13AfterPlayHandEii(ptr noundef nonnull align 8 captures(none) dereferenceable(660) %0, i32 noundef %1, i32 noundef %2) local_unnamed_addr #3 align 2 personality ptr @__gxx_personality_v0 {
  %4 = alloca %"struct.std::array.11", align 4
  %5 = alloca i32, align 4
  %6 = alloca i32, align 4
  %7 = alloca %"class.std::__cxx11::basic_string", align 8
  %8 = alloca i32, align 4
  call void @_ZN10open_spiel9dou_dizhu12ActionToHandEi(ptr dead_on_unwind nonnull writable sret(%"struct.std::array.11") align 4 %4, i32 noundef %2)
  %9 = getelementptr inbounds nuw i8, ptr %0, i64 480
  %10 = sext i32 %1 to i64
  %11 = getelementptr inbounds [3 x %"struct.std::array.11"], ptr %9, i64 0, i64 %10
  %12 = getelementptr inbounds nuw i8, ptr %0, i64 352
  br label %13

13:                                               ; preds = %3, %22
  %indvars.iv = phi i64 [ 0, %3 ], [ %indvars.iv.next, %22 ]
  %.024 = phi i1 [ true, %3 ], [ %24, %22 ]
  %14 = getelementptr inbounds nuw [15 x i32], ptr %11, i64 0, i64 %indvars.iv
  %15 = load i32, ptr %14, align 4
  %16 = getelementptr inbounds nuw [15 x i32], ptr %4, i64 0, i64 %indvars.iv
  %17 = load i32, ptr %16, align 4
  %.not = icmp slt i32 %15, %17
  br i1 %.not, label %18, label %22

18:                                               ; preds = %13
  store i32 %15, ptr %5, align 4
  store i32 %17, ptr %6, align 4
  store i32 392, ptr %8, align 4
  call void @_ZN10open_spiel8internal11SpielStrCatIJRA138_KcRA2_S2_iS6_RA40_S2_RA22_S2_RA4_S2_RiRA21_S2_SD_EEENSt7__cxx1112basic_stringIcSt11char_traitsIcESaIcEEEDpOT_(ptr dead_on_unwind nonnull writable sret(%"class.std::__cxx11::basic_string") align 8 %7, ptr noundef nonnull align 1 dereferenceable(138) @.str.11, ptr noundef nonnull align 1 dereferenceable(2) @.str.12, ptr noundef nonnull align 4 dereferenceable(4) %8, ptr noundef nonnull align 1 dereferenceable(2) @.str.13, ptr noundef nonnull align 1 dereferenceable(40) @.str.49, ptr noundef nonnull align 1 dereferenceable(22) @.str.50, ptr noundef nonnull align 1 dereferenceable(4) @.str.16, ptr noundef nonnull align 4 dereferenceable(4) %5, ptr noundef nonnull align 1 dereferenceable(21) @.str.51, ptr noundef nonnull align 4 dereferenceable(4) %6)
  invoke void @_ZN10open_spiel15SpielFatalErrorERKNSt7__cxx1112basic_stringIcSt11char_traitsIcESaIcEEE(ptr noundef nonnull align 8 dereferenceable(32) %7) #26
          to label %19 unwind label %20

19:                                               ; preds = %18
  unreachable

20:                                               ; preds = %18
  %21 = landingpad { ptr, i32 }
          cleanup
  call void @_ZNSt7__cxx1112basic_stringIcSt11char_traitsIcESaIcEED1Ev(ptr noundef nonnull align 8 dereferenceable(32) %7) #27
  resume { ptr, i32 } %21

22:                                               ; preds = %13
  %23 = sub nsw i32 %15, %17
  store i32 %23, ptr %14, align 4
  %.not18 = icmp eq i32 %15, %17
  %24 = and i1 %.024, %.not18
  %25 = getelementptr inbounds nuw [15 x i32], ptr %12, i64 0, i64 %indvars.iv
  %26 = load i32, ptr %25, align 4
  %27 = add nsw i32 %26, %17
  store i32 %27, ptr %25, align 4
  %indvars.iv.next = add nuw nsw i64 %indvars.iv, 1
  %exitcond.not = icmp eq i64 %indvars.iv.next, 15
  br i1 %exitcond.not, label %28, label %13, !llvm.loop !81

28:                                               ; preds = %22
  ret i1 %24
}